target datalayout = "e-m:e-p270:32:32-p271:32:32-p272:64:64-i64:64-i128:128-f80:128-n8:16:32:64-S128"
target triple = "x86_64-pc-linux-gnu"

%struct.AVCodecContext = type { ptr, i32, i32, ptr, i32, i32, ptr, ptr, ptr, i64, i32, i32, ptr, i32, %struct.AVRational, %struct.AVRational, %struct.AVRational, i32, i32, i32, i32, i32, %struct.AVRational, i32, i32, i32, i32, i32, i32, i32, i32, i32, i32, i32, ptr, ptr, i32, float, float, float, float, float, float, float, float, float, i32, i32, i32, i32, i32, i32, i32, i32, i32, i32, i32, i32, ptr, ptr, ptr, i32, i32, i32, i32, i32, i32, i32, i32, i32, i32, %struct.AVChannelLayout, i32, i32, i32, i32, i32, i32, i32, i32, ptr, i32, i32, i32, float, float, i32, i32, i32, i32, i32, ptr, i64, i64, float, float, i32, i32, ptr, ptr, i32, i32, i32, i32, i32, ptr, ptr, ptr, ptr, i32, i32, [8 x i64], i32, i32, i32, i32, i32, i32, i32, ptr, ptr, i32, i32, i32, i32, i32, i32, i32, i32, i32, i32, ptr, ptr, i32, i32, ptr, ptr, ptr, ptr, i32, i32, i64, i32, i32, i64, ptr, i64, ptr, i32, ptr, i32 }
%struct.AVRational = type { i32, i32 }
%struct.AVChannelLayout = type { i32, i32, %union.anon.0, ptr }
%union.anon.0 = type { i64 }
%struct.SCPRContext = type { i32, ptr, ptr, %struct.GetByteContext, %struct.RangeCoder, [3 x [4096 x %struct.PixelModel]], [6 x [7 x i32]], [6 x [257 x i32]], [257 x i32], [257 x i32], [6 x i32], [4 x [17 x i32]], [2 x [513 x i32]], i32, i32, i32, ptr, i32, i32, [3 x [4096 x %struct.PixelModel3]], [6 x %struct.RunModel3], %struct.RunModel3, %struct.RunModel3, %struct.FillModel3, [4 x %struct.SxyModel3], [2 x %struct.MVModel3], [6 x %struct.OpModel3], ptr, ptr }
%struct.GetByteContext = type { ptr, ptr, ptr }
%struct.RangeCoder = type { i32, i32, i32 }
%struct.PixelModel = type { [256 x i32], [16 x i32], i32 }
%struct.PixelModel3 = type { i8, i8, i8, i8, i16, i32, [256 x i8], [256 x i16], [256 x i16], [256 x i16], [32 x i8] }
%struct.RunModel3 = type { i32, [2 x [256 x i16]], [256 x i16], [32 x i8] }
%struct.FillModel3 = type { i32, [2 x [5 x i16]], [5 x i16], [32 x i8] }
%struct.SxyModel3 = type { i32, [2 x [16 x i16]], [16 x i16], [32 x i8] }
%struct.MVModel3 = type { i32, [2 x [512 x i16]], [512 x i16], [32 x i8] }
%struct.OpModel3 = type { i32, [2 x [6 x i16]], [6 x i16], [32 x i8] }

@.str.2 = private unnamed_addr constant [25 x i8] c"Unsupported bitdepth %i\0A\00", align 1

; Function Attrs: cold nounwind optsize uwtable
define internal i32 @decode_init(ptr noundef %0) #0 {
  %2 = alloca i32, align 4
  %3 = alloca ptr, align 8
  %4 = alloca ptr, align 8
  %5 = alloca i32, align 4
  store ptr %0, ptr %3, align 8, !tbaa !4
  call void @llvm.lifetime.start.p0(i64 8, ptr %4) #9
  %6 = load ptr, ptr %3, align 8, !tbaa !4
  %7 = getelementptr inbounds nuw %struct.AVCodecContext, ptr %6, i32 0, i32 6
  %8 = load ptr, ptr %7, align 8, !tbaa !9
  store ptr %8, ptr %4, align 8, !tbaa !29
  %9 = load ptr, ptr %3, align 8, !tbaa !4
  %10 = getelementptr inbounds nuw %struct.AVCodecContext, ptr %9, i32 0, i32 114
  %11 = load i32, ptr %10, align 8, !tbaa !31
  switch i32 %11, label %18 [
    i32 16, label %12
    i32 24, label %15
    i32 32, label %15
  ]

12:                                               ; preds = %1
  %13 = load ptr, ptr %3, align 8, !tbaa !4
  %14 = getelementptr inbounds nuw %struct.AVCodecContext, ptr %13, i32 0, i32 23
  store i32 119, ptr %14, align 8, !tbaa !32
  br label %23

15:                                               ; preds = %1, %1
  %16 = load ptr, ptr %3, align 8, !tbaa !4
  %17 = getelementptr inbounds nuw %struct.AVCodecContext, ptr %16, i32 0, i32 23
  store i32 121, ptr %17, align 8, !tbaa !32
  br label %23

18:                                               ; preds = %1
  %19 = load ptr, ptr %3, align 8, !tbaa !4
  %20 = load ptr, ptr %3, align 8, !tbaa !4
  %21 = getelementptr inbounds nuw %struct.AVCodecContext, ptr %20, i32 0, i32 114
  %22 = load i32, ptr %21, align 8, !tbaa !31
  call void (ptr, i32, ptr, ...) @av_log(ptr noundef %19, i32 noundef 16, ptr noundef @.str.2, i32 noundef %22)
  store i32 -1094995529, ptr %2, align 4
  store i32 1, ptr %5, align 4
  br label %95

23:                                               ; preds = %15, %12
  %24 = load ptr, ptr %4, align 8, !tbaa !29
  %25 = getelementptr inbounds nuw %struct.SCPRContext, ptr %24, i32 0, i32 27
  store ptr @get_freq0, ptr %25, align 8, !tbaa !33
  %26 = load ptr, ptr %4, align 8, !tbaa !29
  %27 = getelementptr inbounds nuw %struct.SCPRContext, ptr %26, i32 0, i32 28
  store ptr @decode0, ptr %27, align 8, !tbaa !40
  %28 = load ptr, ptr %3, align 8, !tbaa !4
  %29 = getelementptr inbounds nuw %struct.AVCodecContext, ptr %28, i32 0, i32 114
  %30 = load i32, ptr %29, align 8, !tbaa !31
  %31 = icmp eq i32 %30, 16
  %32 = select i1 %31, i32 0, i32 2
  %33 = load ptr, ptr %4, align 8, !tbaa !29
  %34 = getelementptr inbounds nuw %struct.SCPRContext, ptr %33, i32 0, i32 18
  store i32 %32, ptr %34, align 4, !tbaa !41
  %35 = load ptr, ptr %3, align 8, !tbaa !4
  %36 = getelementptr inbounds nuw %struct.AVCodecContext, ptr %35, i32 0, i32 114
  %37 = load i32, ptr %36, align 8, !tbaa !31
  %38 = icmp eq i32 %37, 16
  %39 = select i1 %38, i32 31, i32 255
  %40 = load ptr, ptr %4, align 8, !tbaa !29
  %41 = getelementptr inbounds nuw %struct.SCPRContext, ptr %40, i32 0, i32 17
  store i32 %39, ptr %41, align 8, !tbaa !42
  %42 = load ptr, ptr %3, align 8, !tbaa !4
  %43 = getelementptr inbounds nuw %struct.AVCodecContext, ptr %42, i32 0, i32 18
  %44 = load i32, ptr %43, align 8, !tbaa !43
  %45 = add nsw i32 %44, 15
  %46 = sdiv i32 %45, 16
  %47 = load ptr, ptr %4, align 8, !tbaa !29
  %48 = getelementptr inbounds nuw %struct.SCPRContext, ptr %47, i32 0, i32 13
  store i32 %46, ptr %48, align 4, !tbaa !44
  %49 = load ptr, ptr %3, align 8, !tbaa !4
  %50 = getelementptr inbounds nuw %struct.AVCodecContext, ptr %49, i32 0, i32 19
  %51 = load i32, ptr %50, align 4, !tbaa !45
  %52 = add nsw i32 %51, 15
  %53 = sdiv i32 %52, 16
  %54 = load ptr, ptr %4, align 8, !tbaa !29
  %55 = getelementptr inbounds nuw %struct.SCPRContext, ptr %54, i32 0, i32 14
  store i32 %53, ptr %55, align 8, !tbaa !46
  %56 = load ptr, ptr %4, align 8, !tbaa !29
  %57 = getelementptr inbounds nuw %struct.SCPRContext, ptr %56, i32 0, i32 13
  %58 = load i32, ptr %57, align 4, !tbaa !44
  %59 = load ptr, ptr %4, align 8, !tbaa !29
  %60 = getelementptr inbounds nuw %struct.SCPRContext, ptr %59, i32 0, i32 14
  %61 = load i32, ptr %60, align 8, !tbaa !46
  %62 = mul i32 %58, %61
  %63 = load ptr, ptr %4, align 8, !tbaa !29
  %64 = getelementptr inbounds nuw %struct.SCPRContext, ptr %63, i32 0, i32 15
  store i32 %62, ptr %64, align 4, !tbaa !47
  %65 = load ptr, ptr %4, align 8, !tbaa !29
  %66 = getelementptr inbounds nuw %struct.SCPRContext, ptr %65, i32 0, i32 15
  %67 = load i32, ptr %66, align 4, !tbaa !47
  %68 = zext i32 %67 to i64
  %69 = call ptr @av_malloc_array(i64 noundef %68, i64 noundef 4)
  %70 = load ptr, ptr %4, align 8, !tbaa !29
  %71 = getelementptr inbounds nuw %struct.SCPRContext, ptr %70, i32 0, i32 16
  store ptr %69, ptr %71, align 8, !tbaa !48
  %72 = load ptr, ptr %4, align 8, !tbaa !29
  %73 = getelementptr inbounds nuw %struct.SCPRContext, ptr %72, i32 0, i32 16
  %74 = load ptr, ptr %73, align 8, !tbaa !48
  %75 = icmp ne ptr %74, null
  br i1 %75, label %77, label %76

76:                                               ; preds = %23
  store i32 -12, ptr %2, align 4
  store i32 1, ptr %5, align 4
  br label %95

77:                                               ; preds = %23
  %78 = call ptr @av_frame_alloc()
  %79 = load ptr, ptr %4, align 8, !tbaa !29
  %80 = getelementptr inbounds nuw %struct.SCPRContext, ptr %79, i32 0, i32 1
  store ptr %78, ptr %80, align 8, !tbaa !49
  %81 = call ptr @av_frame_alloc()
  %82 = load ptr, ptr %4, align 8, !tbaa !29
  %83 = getelementptr inbounds nuw %struct.SCPRContext, ptr %82, i32 0, i32 2
  store ptr %81, ptr %83, align 8, !tbaa !50
  %84 = load ptr, ptr %4, align 8, !tbaa !29
  %85 = getelementptr inbounds nuw %struct.SCPRContext, ptr %84, i32 0, i32 1
  %86 = load ptr, ptr %85, align 8, !tbaa !49
  %87 = icmp ne ptr %86, null
  br i1 %87, label %88, label %93

88:                                               ; preds = %77
  %89 = load ptr, ptr %4, align 8, !tbaa !29
  %90 = getelementptr inbounds nuw %struct.SCPRContext, ptr %89, i32 0, i32 2
  %91 = load ptr, ptr %90, align 8, !tbaa !50
  %92 = icmp ne ptr %91, null
  br i1 %92, label %94, label %93

93:                                               ; preds = %88, %77
  store i32 -12, ptr %2, align 4
  store i32 1, ptr %5, align 4
  br label %95

94:                                               ; preds = %88
  store i32 0, ptr %2, align 4
  store i32 1, ptr %5, align 4
  br label %95

95:                                               ; preds = %94, %93, %76, %18
  call void @llvm.lifetime.end.p0(i64 8, ptr %4) #9
  %96 = load i32, ptr %2, align 4
  ret i32 %96
}