; Function Attrs: cold nounwind optsize uwtable
define internal range(i32 -1094995529, 1) i32 @decode_init(ptr noundef %0) #0 {
  %2 = getelementptr inbounds nuw i8, ptr %0, i64 32
  %3 = load ptr, ptr %2, align 8, !tbaa !4
  %4 = getelementptr inbounds nuw i8, ptr %0, i64 648
  %5 = load i32, ptr %4, align 8, !tbaa !27
  switch i32 %5, label %7 [
    i32 16, label %8
    i32 24, label %6
    i32 32, label %6
  ]

6:                                                ; preds = %1, %1
  br label %8

7:                                                ; preds = %1
  tail call void (ptr, i32, ptr, ...) @av_log(ptr noundef nonnull %0, i32 noundef 16, ptr noundef nonnull @.str.2, i32 noundef %5) #12
  br label %38

8:                                                ; preds = %1, %6
  %.sink = phi i32 [ 121, %6 ], [ 119, %1 ]
  %9 = getelementptr inbounds nuw i8, ptr %0, i64 136
  store i32 %.sink, ptr %9, align 8, !tbaa !28
  %10 = getelementptr inbounds nuw i8, ptr %3, i64 36011968
  store ptr @get_freq0, ptr %10, align 8, !tbaa !29
  %11 = getelementptr inbounds nuw i8, ptr %3, i64 36011976
  store ptr @decode0, ptr %11, align 8, !tbaa !36
  %12 = icmp eq i32 %5, 16
  %13 = select i1 %12, i32 0, i32 2
  %14 = getelementptr inbounds nuw i8, ptr %3, i64 13431372
  store i32 %13, ptr %14, align 4, !tbaa !37
  %15 = select i1 %12, i32 31, i32 255
  %16 = getelementptr inbounds nuw i8, ptr %3, i64 13431368
  store i32 %15, ptr %16, align 8, !tbaa !38
  %17 = getelementptr inbounds nuw i8, ptr %0, i64 112
  %18 = load i32, ptr %17, align 8, !tbaa !39
  %19 = add nsw i32 %18, 15
  %20 = sdiv i32 %19, 16
  %21 = getelementptr inbounds nuw i8, ptr %3, i64 13431348
  store i32 %20, ptr %21, align 4, !tbaa !40
  %22 = getelementptr inbounds nuw i8, ptr %0, i64 116
  %23 = load i32, ptr %22, align 4, !tbaa !41
  %24 = add nsw i32 %23, 15
  %25 = sdiv i32 %24, 16
  %26 = getelementptr inbounds nuw i8, ptr %3, i64 13431352
  store i32 %25, ptr %26, align 8, !tbaa !42
  %27 = mul i32 %25, %20
  %28 = getelementptr inbounds nuw i8, ptr %3, i64 13431356
  store i32 %27, ptr %28, align 4, !tbaa !43
  %29 = zext i32 %27 to i64
  %30 = tail call ptr @av_malloc_array(i64 noundef %29, i64 noundef 4) #12
  %31 = getelementptr inbounds nuw i8, ptr %3, i64 13431360
  store ptr %30, ptr %31, align 8, !tbaa !44
  %.not = icmp eq ptr %30, null
  br i1 %.not, label %38, label %32

32:                                               ; preds = %8
  %33 = tail call ptr @av_frame_alloc() #12
  %34 = getelementptr inbounds nuw i8, ptr %3, i64 8
  store ptr %33, ptr %34, align 8, !tbaa !45
  %35 = tail call ptr @av_frame_alloc() #12
  %36 = getelementptr inbounds nuw i8, ptr %3, i64 16
  store ptr %35, ptr %36, align 8, !tbaa !46
  %37 = load ptr, ptr %34, align 8, !tbaa !45
  %.not26 = icmp eq ptr %37, null
  %.not27 = icmp eq ptr %35, null
  %or.cond = select i1 %.not26, i1 true, i1 %.not27
  %spec.select = select i1 %or.cond, i32 -12, i32 0
  br label %38

38:                                               ; preds = %32, %8, %7
  %.0 = phi i32 [ -1094995529, %7 ], [ -12, %8 ], [ %spec.select, %32 ]
  ret i32 %.0
}